; ModuleID = 'source-C-CXX/2/3062.c'
source_filename = "source-C-CXX/2/3062.c"
target datalayout = "e-m:e-p270:32:32-p271:32:32-p272:64:64-i64:64-f80:128-n8:16:32:64-S128"
target triple = "x86_64-pc-linux-gnu"

@.str = private unnamed_addr constant [5 x i8] c"%d%d\00", align 1
@.str.1 = private unnamed_addr constant [3 x i8] c"%d\00", align 1
@.str.2 = private unnamed_addr constant [3 x i8] c"no\00", align 1
@.str.3 = private unnamed_addr constant [4 x i8] c"yes\00", align 1

; Function Attrs: nofree nounwind sspstrong uwtable
define dso_local i32 @main() local_unnamed_addr #0 {
  %1 = alloca i32, align 4
  %2 = alloca i32, align 4
  %3 = bitcast i32* %1 to i8*
  call void @llvm.lifetime.start.p0i8(i64 4, i8* nonnull %3) #4
  %4 = bitcast i32* %2 to i8*
  call void @llvm.lifetime.start.p0i8(i64 4, i8* nonnull %4) #4
  %5 = call i32 (i8*, ...) @__isoc99_scanf(i8* getelementptr inbounds ([5 x i8], [5 x i8]* @.str, i64 0, i64 0), i32* nonnull %1, i32* nonnull %2)
  %6 = load i32, i32* %1, align 4, !tbaa !5
  %7 = zext i32 %6 to i64
  %8 = call i8* @llvm.stacksave()
  %9 = alloca i32, i64 %7, align 16
  %10 = load i32, i32* %1, align 4, !tbaa !5
  %11 = icmp sgt i32 %10, 0
  br i1 %11, label %41, label %52

12:                                               ; preds = %41
  %13 = load i32, i32* %2, align 4
  %14 = icmp sgt i32 %46, 0
  br i1 %14, label %15, label %52

15:                                               ; preds = %12
  %16 = zext i32 %46 to i64
  br label %17

17:                                               ; preds = %15, %38
  %18 = phi i64 [ 0, %15 ], [ %39, %38 ]
  %19 = phi i32 [ 0, %15 ], [ %35, %38 ]
  %20 = getelementptr inbounds i32, i32* %9, i64 %18
  %21 = load i32, i32* %20, align 4, !tbaa !5
  br label %22

22:                                               ; preds = %17, %22
  %23 = phi i32 [ %19, %17 ], [ %35, %22 ]
  %24 = phi i32 [ 0, %17 ], [ %36, %22 ]
  %25 = zext i32 %24 to i64
  %26 = icmp eq i64 %18, %25
  %27 = zext i1 %26 to i32
  %28 = add nsw i32 %24, %27
  %29 = sext i32 %28 to i64
  %30 = getelementptr inbounds i32, i32* %9, i64 %29
  %31 = load i32, i32* %30, align 4, !tbaa !5
  %32 = add nsw i32 %31, %21
  %33 = icmp eq i32 %32, %13
  %34 = zext i1 %33 to i32
  %35 = add nsw i32 %23, %34
  %36 = add nsw i32 %28, 1
  %37 = icmp slt i32 %36, %46
  br i1 %37, label %22, label %38, !llvm.loop !9

38:                                               ; preds = %22
  %39 = add nuw nsw i64 %18, 1
  %40 = icmp eq i64 %39, %16
  br i1 %40, label %49, label %17, !llvm.loop !11

41:                                               ; preds = %0, %41
  %42 = phi i64 [ %45, %41 ], [ 0, %0 ]
  %43 = getelementptr inbounds i32, i32* %9, i64 %42
  %44 = call i32 (i8*, ...) @__isoc99_scanf(i8* getelementptr inbounds ([3 x i8], [3 x i8]* @.str.1, i64 0, i64 0), i32* nonnull %43)
  %45 = add nuw nsw i64 %42, 1
  %46 = load i32, i32* %1, align 4, !tbaa !5
  %47 = sext i32 %46 to i64
  %48 = icmp slt i64 %45, %47
  br i1 %48, label %41, label %12, !llvm.loop !12

49:                                               ; preds = %38
  %50 = icmp eq i32 %35, 0
  %51 = select i1 %50, i8* getelementptr inbounds ([3 x i8], [3 x i8]* @.str.2, i64 0, i64 0), i8* getelementptr inbounds ([4 x i8], [4 x i8]* @.str.3, i64 0, i64 0)
  br label %52

52:                                               ; preds = %49, %12, %0
  %53 = phi i8* [ getelementptr inbounds ([3 x i8], [3 x i8]* @.str.2, i64 0, i64 0), %0 ], [ getelementptr inbounds ([3 x i8], [3 x i8]* @.str.2, i64 0, i64 0), %12 ], [ %51, %49 ]
  %54 = call i32 (i8*, ...) @printf(i8* nonnull dereferenceable(1) %53)
  call void @llvm.stackrestore(i8* %8)
  call void @llvm.lifetime.end.p0i8(i64 4, i8* nonnull %4) #4
  call void @llvm.lifetime.end.p0i8(i64 4, i8* nonnull %3) #4
  ret i32 0
}

; Function Attrs: argmemonly mustprogress nofree nosync nounwind willreturn
declare void @llvm.lifetime.start.p0i8(i64 immarg, i8* nocapture) #1

; Function Attrs: nofree nounwind
declare noundef i32 @__isoc99_scanf(i8* nocapture noundef readonly, ...) local_unnamed_addr #2

; Function Attrs: mustprogress nofree nosync nounwind willreturn
declare i8* @llvm.stacksave() #3

; Function Attrs: nofree nounwind
declare noundef i32 @printf(i8* nocapture noundef readonly, ...) local_unnamed_addr #2

; Function Attrs: mustprogress nofree nosync nounwind willreturn
declare void @llvm.stackrestore(i8*) #3

; Function Attrs: argmemonly mustprogress nofree nosync nounwind willreturn
declare void @llvm.lifetime.end.p0i8(i64 immarg, i8* nocapture) #1


!llvm.module.flags = !{!0, !1, !2, !3}
!llvm.ident = !{!4}

!0 = !{i32 1, !"wchar_size", i32 4}
!1 = !{i32 7, !"PIC Level", i32 2}
!2 = !{i32 7, !"PIE Level", i32 2}
!3 = !{i32 7, !"uwtable", i32 1}
!4 = !{!"clang version 13.0.0"}
!5 = !{!6, !6, i64 0}
!6 = !{!"int", !7, i64 0}
!7 = !{!"omnipotent char", !8, i64 0}
!8 = !{!"Simple C/C++ TBAA"}
!9 = distinct !{!9, !10}
!10 = !{!"llvm.loop.mustprogress"}
!11 = distinct !{!11, !10}
!12 = distinct !{!12, !10}
